(dp0
S'NSE'
p1
S'^NSEI'
p2
sS'L&T'
p3
S'LT.NS'
p4
sS'GAIL'
p5
S'GAIL.BO'
p6
sS'Reliance Industries'
p7
S'RIL.BO'
p8
sS'BSE'
p9
S'^BSESN'
p10
sS'Reliance Power'
p11
S'RPOWER.NS'
p12
sS'Tanla Solutions'
p13
S'TANLA.BO'
p14
s.